target datalayout = "e-m:e-p270:32:32-p271:32:32-p272:64:64-i64:64-i128:128-f80:128-n8:16:32:64-S128"
target triple = "x86_64-pc-linux-gnu"

%class.Node = type <{ ptr, ptr, ptr, i32, i32, i32, i32, i32, i32, i32, [4 x i8] }>

; Function Attrs: mustprogress nounwind uwtable
define linkonce_odr hidden noundef ptr @_ZNK4Node9as_IfTrueEv(ptr noundef nonnull align 8 dereferenceable(52) %0) #1 comdat align 2 {
  %2 = alloca ptr, align 8
  store ptr %0, ptr %2, align 8
  %3 = load ptr, ptr %2, align 8
  ret ptr %3
}

; Function Attrs: mustprogress nounwind uwtable
define linkonce_odr hidden noundef zeroext i1 @_ZNK4Node6is_topEv(ptr noundef nonnull align 8 dereferenceable(52) %0) #1 comdat align 2 {
  %2 = alloca ptr, align 8
  store ptr %0, ptr %2, align 8
  %3 = load ptr, ptr %2, align 8
  %4 = getelementptr inbounds %class.Node, ptr %3, i32 0, i32 2
  %5 = load ptr, ptr %4, align 8
  %6 = icmp eq ptr %5, null
  ret i1 %6
}

; Function Attrs: mustprogress nounwind uwtable
define linkonce_odr hidden noundef ptr @_ZNK4Node2inEj(ptr noundef nonnull align 8 dereferenceable(52) %0, i32 noundef %1) #1 comdat align 2 {
  %3 = alloca ptr, align 8
  %4 = alloca i32, align 4
  store ptr %0, ptr %3, align 8
  store i32 %1, ptr %4, align 4
  %5 = load ptr, ptr %3, align 8
  %6 = getelementptr inbounds %class.Node, ptr %5, i32 0, i32 1
  %7 = load ptr, ptr %6, align 8
  %8 = load i32, ptr %4, align 4
  %9 = zext i32 %8 to i64
  %10 = getelementptr inbounds ptr, ptr %7, i64 %9
  %11 = load ptr, ptr %10, align 8
  ret ptr %11
}

; Function Attrs: mustprogress nounwind uwtable
define hidden noundef ptr @_ZNK23OuterStripMinedLoopNode15outer_loop_tailEv(ptr noundef nonnull align 8 dereferenceable(72) %0) unnamed_addr #1 align 2 {
  %2 = alloca ptr, align 8
  %3 = alloca ptr, align 8
  %4 = alloca ptr, align 8
  store ptr %0, ptr %3, align 8
  %5 = load ptr, ptr %3, align 8
  %6 = call noundef ptr @_ZNK4Node2inEj(ptr noundef nonnull align 8 dereferenceable(52) %5, i32 noundef 2)
  store ptr %6, ptr %4, align 8
  %7 = load ptr, ptr %4, align 8
  %8 = icmp eq ptr %7, null
  br i1 %8, label %12, label %9

9:                                                ; preds = %1
  %10 = load ptr, ptr %4, align 8
  %11 = call noundef zeroext i1 @_ZNK4Node6is_topEv(ptr noundef nonnull align 8 dereferenceable(52) %10)
  br i1 %11, label %12, label %13

12:                                               ; preds = %9, %1
  store ptr null, ptr %2, align 8
  br label %16

13:                                               ; preds = %9
  %14 = load ptr, ptr %4, align 8
  %15 = call noundef ptr @_ZNK4Node9as_IfTrueEv(ptr noundef nonnull align 8 dereferenceable(52) %14)
  store ptr %15, ptr %2, align 8
  br label %16

16:                                               ; preds = %13, %12
  %17 = load ptr, ptr %2, align 8
  ret ptr %17
}