; Function Attrs: mustprogress nofree norecurse nosync nounwind willreturn memory(read, inaccessiblemem: none) uwtable
define hidden noundef ptr @_ZNK23OuterStripMinedLoopNode15outer_loop_tailEv(ptr nocapture noundef nonnull readonly align 8 dereferenceable(72) %0) unnamed_addr #3 align 2 {
  %2 = getelementptr inbounds i8, ptr %0, i64 8
  %3 = load ptr, ptr %2, align 8
  %4 = getelementptr inbounds i8, ptr %3, i64 16
  %5 = load ptr, ptr %4, align 8
  %6 = icmp eq ptr %5, null
  br i1 %6, label %11, label %7

7:                                                ; preds = %1
  %8 = getelementptr inbounds i8, ptr %5, i64 16
  %9 = load ptr, ptr %8, align 8
  %10 = icmp eq ptr %9, null
  %spec.select = select i1 %10, ptr null, ptr %5
  br label %11

11:                                               ; preds = %7, %1
  %.0 = phi ptr [ null, %1 ], [ %spec.select, %7 ]
  ret ptr %.0
}